target datalayout = "e-m:e-p270:32:32-p271:32:32-p272:64:64-i64:64-i128:128-f80:128-n8:16:32:64-S128"
target triple = "x86_64-pc-linux-gnu"

%struct.redisServer = type { i32, i64, ptr, ptr, ptr, i32, i32, i32, i32, i32, ptr, ptr, ptr, ptr, ptr, i32, i32, i32, i32, i64, i32, i32, i32, i32, ptr, i32, i32, [41 x i8], i32, i64, i32, i32, i32, ptr, ptr, i32, i32, i64, ptr, ptr, ptr, ptr, [2 x i32], i32, i32, i32, i32, i32, i32, [16 x ptr], i32, ptr, ptr, i32, [8 x %struct.connListener], i32, %struct.connListener, ptr, ptr, ptr, ptr, ptr, ptr, ptr, ptr, ptr, ptr, i32, ptr, i32, ptr, [3 x %struct.pause_event], [256 x i8], ptr, i64, i32, i32, [128 x i32], i32, i32, i64, i32, i32, i32, i32, i32, i64, i64, i64, i64, i64, i64, i64, i64, i64, i64, double, i64, i64, i64, i64, i64, i64, i64, i64, i64, i64, i64, i64, i64, i64, i64, i64, i64, i64, i64, i64, i64, double, i64, i64, i64, i64, i64, ptr, i64, i64, i64, %struct.malloc_stats, i64, i64, i64, i64, i64, i64, i64, i64, i64, i64, i64, i64, double, [4 x i64], i64, i64, i64, i64, [128 x i64], [128 x i64], i64, i64, [7 x %struct.anon], i64, i64, i64, i64, i64, i64, [4 x %struct.durationStats], i32, i32, i32, i32, i32, i32, i32, i32, i32, i32, i32, i32, i64, i32, i32, i32, i32, i64, i64, i32, i32, i32, i32, i32, ptr, [3 x %struct.clientBufferLimitsConfig], i32, i32, i32, ptr, i32, i32, i32, i32, i32, i32, ptr, ptr, i32, i32, i64, i64, i64, i64, i64, i32, i32, ptr, i32, i32, i64, i64, i64, i64, i64, i32, i32, i64, i32, i32, i32, i32, i32, i32, i32, i32, ptr, i32, i64, i64, i64, i64, i32, ptr, i32, ptr, i32, i32, i32, i64, i64, i64, i64, i32, i32, i32, i32, i32, i32, ptr, i32, i32, ptr, i32, i32, i32, [2 x i32], i32, %struct.redisOpArray, i32, ptr, i32, ptr, i32, i32, i32, i32, i32, i32, i32, [41 x i8], [41 x i8], i64, i64, i64, i64, i32, i32, ptr, i64, i64, %struct.replDataBuf, i64, i64, i32, i32, i32, i32, i32, i32, i32, i32, i32, i64, ptr, i64, ptr, ptr, ptr, i32, i32, ptr, ptr, i32, i32, i32, i64, i64, i64, i64, ptr, ptr, i32, ptr, i64, i32, i32, i32, i64, i32, i32, i32, i32, ptr, i32, i32, [41 x i8], i64, i32, ptr, i32, i32, i64, i64, i32, i32, i32, i32, i32, i64, [3 x i32], i32, i32, i32, [10 x i32], ptr, ptr, i32, i64, ptr, ptr, i32, i32, i32, i32, i64, i64, i64, i64, i64, i64, i64, i64, i64, i64, i32, i32, i64, i64, i32, i64, i64, i64, i64, i64, ptr, ptr, i32, ptr, i32, i32, i32, i32, i64, i64, ptr, ptr, i32, i32, i32, i32, i32, ptr, ptr, ptr, i32, i32, i32, i32, i32, i32, i32, i64, i32, i32, i64, i32, i32, i32, i32, i32, i32, i32, i64, ptr, ptr, i64, ptr, i32, %struct.aclInfo, i32, i64, i32, i32, i32, %struct.redisTLSContextConfig, ptr, ptr, ptr, ptr, ptr, i64, i32, ptr, i32, i32, i32, i64, i32, ptr }
%struct.connListener = type { [16 x i32], i32, ptr, i32, i32, ptr, ptr }
%struct.pause_event = type { i32, i64 }
%struct.malloc_stats = type { i64, i64, i64, i64, i64, i64, i64, i64, i64, i64, i64 }
%struct.anon = type { i64, i64, [16 x i64], i32 }
%struct.durationStats = type { i64, i64, i64 }
%struct.clientBufferLimitsConfig = type { i64, i64, i64 }
%struct.redisOpArray = type { ptr, i32, i32 }
%struct.replDataBuf = type { ptr, i64, i64, i64, i64 }
%struct.aclInfo = type { i64, i64, i64, i64 }
%struct.redisTLSContextConfig = type { ptr, ptr, ptr, ptr, ptr, ptr, ptr, ptr, ptr, ptr, ptr, ptr, i32, i32, i32, i32 }
%struct.redisDb = type { ptr, ptr, ptr, ptr, ptr, ptr, ptr, i32, i64, i64, ptr }
%struct.redisObject = type { i32, i32, ptr }
%struct.client = type { i64, i64, ptr, i8, i8, i8, i8, i32, ptr, ptr, ptr, ptr, ptr, i64, i64, i32, ptr, i32, i32, ptr, i64, ptr, ptr, ptr, ptr, ptr, i32, i32, i64, ptr, i64, ptr, i64, i64, i64, i32, ptr, i64, i64, i32, i32, i32, i32, i64, i64, ptr, i64, i64, i64, i64, i64, i64, i64, i64, [41 x i8], i32, ptr, i32, i32, i64, %struct.multiState, %struct.blockingState, i64, ptr, ptr, ptr, ptr, ptr, ptr, ptr, ptr, ptr, ptr, ptr, ptr, ptr, ptr, i64, ptr, i64, i32, ptr, ptr, ptr, i64, %struct.listNode, i64, i64, i32, i64, ptr }
%struct.multiState = type { ptr, i32, i32, i32, i64, i32 }
%struct.blockingState = type { i32, i64, i32, ptr, i32, i32, i64, ptr, ptr, i64 }
%struct.listNode = type { ptr, ptr, ptr }

@server = external global %struct.redisServer, align 8
@.str.2 = private unnamed_addr constant [5 x i8] c"db.c\00", align 1
@.str.52 = private unnamed_addr constant [12 x i8] c"kde != NULL\00", align 1

; Function Attrs: nounwind uwtable
define dso_local i32 @getKeySlot(ptr noundef %0) #0 {
  %2 = alloca i32, align 4
  %3 = alloca ptr, align 8
  store ptr %0, ptr %3, align 8, !tbaa !78
  %4 = load ptr, ptr getelementptr inbounds nuw (%struct.redisServer, ptr @server, i32 0, i32 63), align 8, !tbaa !53
  %5 = icmp ne ptr %4, null
  br i1 %5, label %6, label %21

6:                                                ; preds = %1
  %7 = load ptr, ptr getelementptr inbounds nuw (%struct.redisServer, ptr @server, i32 0, i32 63), align 8, !tbaa !53
  %8 = getelementptr inbounds nuw %struct.client, ptr %7, i32 0, i32 35
  %9 = load i32, ptr %8, align 8, !tbaa !86
  %10 = icmp sge i32 %9, 0
  br i1 %10, label %11, label %21

11:                                               ; preds = %6
  %12 = load ptr, ptr getelementptr inbounds nuw (%struct.redisServer, ptr @server, i32 0, i32 63), align 8, !tbaa !53
  %13 = getelementptr inbounds nuw %struct.client, ptr %12, i32 0, i32 1
  %14 = load i64, ptr %13, align 8, !tbaa !54
  %15 = and i64 %14, 536870912
  %16 = icmp ne i64 %15, 0
  br i1 %16, label %17, label %21

17:                                               ; preds = %11
  %18 = load ptr, ptr getelementptr inbounds nuw (%struct.redisServer, ptr @server, i32 0, i32 63), align 8, !tbaa !53
  %19 = getelementptr inbounds nuw %struct.client, ptr %18, i32 0, i32 35
  %20 = load i32, ptr %19, align 8, !tbaa !86
  store i32 %20, ptr %2, align 4
  br label %24

21:                                               ; preds = %11, %6, %1
  %22 = load ptr, ptr %3, align 8, !tbaa !78
  %23 = call i32 @calculateKeySlot(ptr noundef %22)
  store i32 %23, ptr %2, align 4
  br label %24

24:                                               ; preds = %21, %17
  %25 = load i32, ptr %2, align 4
  ret i32 %25
}

; Function Attrs: nounwind uwtable
define dso_local void @setExpireWithDictEntry(ptr noundef %0, ptr noundef %1, ptr noundef %2, i64 noundef %3, ptr noundef %4) #0 {
  %6 = alloca ptr, align 8
  %7 = alloca ptr, align 8
  %8 = alloca ptr, align 8
  %9 = alloca i64, align 8
  %10 = alloca ptr, align 8
  %11 = alloca ptr, align 8
  %12 = alloca ptr, align 8
  %13 = alloca i32, align 4
  %14 = alloca i32, align 4
  store ptr %0, ptr %6, align 8, !tbaa !76
  store ptr %1, ptr %7, align 8, !tbaa !12
  store ptr %2, ptr %8, align 8, !tbaa !5
  store i64 %3, ptr %9, align 8, !tbaa !90
  store ptr %4, ptr %10, align 8, !tbaa !27
  call void @llvm.lifetime.start.p0(i64 8, ptr %11) #15
  call void @llvm.lifetime.start.p0(i64 8, ptr %12) #15
  call void @llvm.lifetime.start.p0(i64 4, ptr %13) #15
  %15 = load ptr, ptr %8, align 8, !tbaa !5
  %16 = getelementptr inbounds nuw %struct.redisObject, ptr %15, i32 0, i32 2
  %17 = load ptr, ptr %16, align 8, !tbaa !25
  %18 = call i32 @getKeySlot(ptr noundef %17)
  store i32 %18, ptr %13, align 4, !tbaa !14
  %19 = load ptr, ptr %10, align 8, !tbaa !27
  %20 = icmp ne ptr %19, null
  br i1 %20, label %30, label %21

21:                                               ; preds = %5
  %22 = load ptr, ptr %7, align 8, !tbaa !12
  %23 = getelementptr inbounds nuw %struct.redisDb, ptr %22, i32 0, i32 0
  %24 = load ptr, ptr %23, align 8, !tbaa !16
  %25 = load i32, ptr %13, align 4, !tbaa !14
  %26 = load ptr, ptr %8, align 8, !tbaa !5
  %27 = getelementptr inbounds nuw %struct.redisObject, ptr %26, i32 0, i32 2
  %28 = load ptr, ptr %27, align 8, !tbaa !25
  %29 = call ptr @kvstoreDictFind(ptr noundef %24, i32 noundef %25, ptr noundef %28)
  store ptr %29, ptr %10, align 8, !tbaa !27
  br label %30

30:                                               ; preds = %21, %5
  %31 = load ptr, ptr %10, align 8, !tbaa !27
  %32 = icmp ne ptr %31, null
  %33 = xor i1 %32, true
  %34 = xor i1 %33, true
  %35 = zext i1 %34 to i32
  %36 = sext i32 %35 to i64
  %37 = call i64 @llvm.expect.i64(i64 %36, i64 1)
  %38 = icmp ne i64 %37, 0
  br i1 %38, label %39, label %40

39:                                               ; preds = %30
  br label %43

40:                                               ; preds = %30
  %41 = load ptr, ptr %8, align 8, !tbaa !5
  call void @_serverAssertWithInfo(ptr noundef null, ptr noundef %41, ptr noundef @.str.52, ptr noundef @.str.2, i32 noundef 2033)
  call void @abort() #16
  unreachable

42:                                               ; No predecessors!
  br label %43

43:                                               ; preds = %42, %39
  %44 = load ptr, ptr %7, align 8, !tbaa !12
  %45 = getelementptr inbounds nuw %struct.redisDb, ptr %44, i32 0, i32 1
  %46 = load ptr, ptr %45, align 8, !tbaa !88
  %47 = load i32, ptr %13, align 4, !tbaa !14
  %48 = load ptr, ptr %10, align 8, !tbaa !27
  %49 = call ptr @dictGetKey(ptr noundef %48)
  %50 = call ptr @kvstoreDictAddRaw(ptr noundef %46, i32 noundef %47, ptr noundef %49, ptr noundef %12)
  store ptr %50, ptr %11, align 8, !tbaa !27
  %51 = load ptr, ptr %12, align 8, !tbaa !27
  %52 = icmp ne ptr %51, null
  br i1 %52, label %53, label %56

53:                                               ; preds = %43
  %54 = load ptr, ptr %12, align 8, !tbaa !27
  %55 = load i64, ptr %9, align 8, !tbaa !90
  call void @dictSetSignedIntegerVal(ptr noundef %54, i64 noundef %55)
  br label %59

56:                                               ; preds = %43
  %57 = load ptr, ptr %11, align 8, !tbaa !27
  %58 = load i64, ptr %9, align 8, !tbaa !90
  call void @dictSetSignedIntegerVal(ptr noundef %57, i64 noundef %58)
  br label %59

59:                                               ; preds = %56, %53
  call void @llvm.lifetime.start.p0(i64 4, ptr %14) #15
  %60 = load ptr, ptr getelementptr inbounds nuw (%struct.redisServer, ptr @server, i32 0, i32 297), align 8, !tbaa !29
  %61 = icmp ne ptr %60, null
  br i1 %61, label %62, label %65

62:                                               ; preds = %59
  %63 = load i32, ptr getelementptr inbounds nuw (%struct.redisServer, ptr @server, i32 0, i32 315), align 4, !tbaa !52
  %64 = icmp eq i32 %63, 0
  br label %65

65:                                               ; preds = %62, %59
  %66 = phi i1 [ false, %59 ], [ %64, %62 ]
  %67 = zext i1 %66 to i32
  store i32 %67, ptr %14, align 4, !tbaa !14
  %68 = load ptr, ptr %6, align 8, !tbaa !76
  %69 = icmp ne ptr %68, null
  br i1 %69, label %70, label %82

70:                                               ; preds = %65
  %71 = load i32, ptr %14, align 4, !tbaa !14
  %72 = icmp ne i32 %71, 0
  br i1 %72, label %73, label %82

73:                                               ; preds = %70
  %74 = load ptr, ptr %6, align 8, !tbaa !76
  %75 = getelementptr inbounds nuw %struct.client, ptr %74, i32 0, i32 1
  %76 = load i64, ptr %75, align 8, !tbaa !54
  %77 = and i64 %76, 2
  %78 = icmp ne i64 %77, 0
  br i1 %78, label %82, label %79

79:                                               ; preds = %73
  %80 = load ptr, ptr %7, align 8, !tbaa !12
  %81 = load ptr, ptr %8, align 8, !tbaa !5
  call void @rememberSlaveKeyWithExpire(ptr noundef %80, ptr noundef %81)
  br label %82

82:                                               ; preds = %79, %73, %70, %65
  call void @llvm.lifetime.end.p0(i64 4, ptr %14) #15
  call void @llvm.lifetime.end.p0(i64 4, ptr %13) #15
  call void @llvm.lifetime.end.p0(i64 8, ptr %12) #15
  call void @llvm.lifetime.end.p0(i64 8, ptr %11) #15
  ret void
}