; Function Attrs: nounwind uwtable
define dso_local void @setExpireWithDictEntry(ptr noundef readonly captures(address_is_null) %0, ptr noundef %1, ptr noundef %2, i64 noundef %3, ptr noundef %4) local_unnamed_addr #0 {
  %6 = alloca ptr, align 8
  call void @llvm.lifetime.start.p0(i64 8, ptr nonnull %6) #20
  %7 = getelementptr inbounds nuw i8, ptr %2, i64 8
  %8 = load ptr, ptr %7, align 8, !tbaa !18
  %9 = load ptr, ptr getelementptr inbounds nuw (i8, ptr @server, i64 1480), align 8, !tbaa !20
  %.not.i = icmp eq ptr %9, null
  br i1 %.not.i, label %18, label %10

10:                                               ; preds = %5
  %11 = getelementptr inbounds nuw i8, ptr %9, i64 232
  %12 = load i32, ptr %11, align 8, !tbaa !44
  %13 = icmp sgt i32 %12, -1
  br i1 %13, label %14, label %18

14:                                               ; preds = %10
  %15 = getelementptr inbounds nuw i8, ptr %9, i64 8
  %16 = load i64, ptr %15, align 8, !tbaa !55
  %17 = and i64 %16, 536870912
  %.not3.i = icmp eq i64 %17, 0
  br i1 %.not3.i, label %18, label %getKeySlot.exit

18:                                               ; preds = %14, %10, %5
  %19 = tail call i32 @calculateKeySlot(ptr noundef %8)
  br label %getKeySlot.exit

getKeySlot.exit:                                  ; preds = %14, %18
  %.0.i = phi i32 [ %19, %18 ], [ %12, %14 ]
  %.not = icmp eq ptr %4, null
  br i1 %.not, label %20, label %.thread

20:                                               ; preds = %getKeySlot.exit
  %21 = load ptr, ptr %1, align 8, !tbaa !6
  %22 = load ptr, ptr %7, align 8, !tbaa !18
  %23 = tail call ptr @kvstoreDictFind(ptr noundef %21, i32 noundef %.0.i, ptr noundef %22) #20
  %.not21 = icmp eq ptr %23, null
  br i1 %.not21, label %24, label %.thread, !prof !84

24:                                               ; preds = %20
  tail call void @_serverAssertWithInfo(ptr noundef null, ptr noundef nonnull %2, ptr noundef nonnull @.str.52, ptr noundef nonnull @.str.2, i32 noundef 2033) #20
  tail call void @abort() #21
  unreachable

.thread:                                          ; preds = %getKeySlot.exit, %20
  %.026 = phi ptr [ %23, %20 ], [ %4, %getKeySlot.exit ]
  %25 = getelementptr inbounds nuw i8, ptr %1, i64 8
  %26 = load ptr, ptr %25, align 8, !tbaa !72
  %27 = tail call ptr @dictGetKey(ptr noundef nonnull %.026) #20
  %28 = call ptr @kvstoreDictAddRaw(ptr noundef %26, i32 noundef %.0.i, ptr noundef %27, ptr noundef nonnull %6) #20
  %29 = load ptr, ptr %6, align 8, !tbaa !69
  %.not22 = icmp eq ptr %29, null
  %. = select i1 %.not22, ptr %28, ptr %29
  call void @dictSetSignedIntegerVal(ptr noundef %., i64 noundef %3) #20
  %30 = load ptr, ptr getelementptr inbounds nuw (i8, ptr @server, i64 7264), align 8, !tbaa !56
  %31 = icmp ne ptr %30, null
  %32 = load i32, ptr getelementptr inbounds nuw (i8, ptr @server, i64 7388), align 4
  %33 = icmp eq i32 %32, 0
  %34 = icmp ne ptr %0, null
  %35 = select i1 %34, i1 %31, i1 false
  %or.cond = select i1 %35, i1 %33, i1 false
  br i1 %or.cond, label %36, label %41

36:                                               ; preds = %.thread
  %37 = getelementptr inbounds nuw i8, ptr %0, i64 8
  %38 = load i64, ptr %37, align 8, !tbaa !55
  %39 = and i64 %38, 2
  %.not23 = icmp eq i64 %39, 0
  br i1 %.not23, label %40, label %41

40:                                               ; preds = %36
  call void @rememberSlaveKeyWithExpire(ptr noundef nonnull %1, ptr noundef nonnull %2) #20
  br label %41

41:                                               ; preds = %40, %36, %.thread
  call void @llvm.lifetime.end.p0(i64 8, ptr nonnull %6) #20
  ret void
}